(dp0
S'Gone Girl'
p1
(dp2
S'url'
p3
S'Gone_Girl_(film)'
p4
ssS'Repentance'
p5
(dp6
g3
S'Repentance_(2014_film)'
p7
ssS'The Two Faces of January'
p8
(dp9
g3
S'The_Two_Faces_of_January_(film)'
p10
ssS'Ratchet & Clank'
p11
(dp12
S'url'
p13
S'Ratchet_%26_Clank_(film)'
p14
ssS'I Kissed a Girl'
p15
(dp16
S'url'
p17
S'I_Kissed_a_Girl_(film)'
p18
ssS'Moor'
p19
(dp20
g17
S'Moor_(film)'
p21
ssS'The Visit'
p22
(dp23
g17
S'The_Visit_(2015_American_film)'
p24
ssS"Don't Be Bad"
p25
(dp26
g17
S'Don%27t_Be_Bad'
p27
ssS'From Vegas to Macau III'
p28
(dp29
g13
S'From_Vegas_to_Macau_III'
p30
ssS'Young Ones'
p31
(dp32
g3
S'Young_Ones_(film)'
p33
ssS'Mr. Holmes'
p34
(dp35
g17
S'Mr._Holmes'
p36
ssS'Smosh: The Movie'
p37
(dp38
g17
S'Smosh:_The_Movie'
p39
ssS'Home Care'
p40
(dp41
g17
S'Home_Care_(film)'
p42
ssS'1944'
p43
(dp44
g17
S'1944_(film)'
p45
ssS'O21'
p46
(dp47
g3
S'O21_(film)'
p48
ssS'A Haunted House 2'
p49
(dp50
g3
S'A_Haunted_House_2'
p51
ssS'Somewhere Only We Know'
p52
(dp53
g17
S'Somewhere_Only_We_Know_(film)'
p54
ssS'Vengeance'
p55
(dp56
g3
S'Vengeance_(2014_film)'
p57
ssS"Maggie's Plan"
p58
(dp59
g13
S'Maggie%27s_Plan'
p60
ssS'Persecuted'
p61
(dp62
g3
S'Persecuted_(film)'
p63
ssS'The Single Moms Club'
p64
(dp65
g3
S'The_Single_Moms_Club'
p66
ssS'Wild Card'
p67
(dp68
g17
S'Wild_Card_(2015_film)'
p69
ssS'Dead Snow: Red vs. Dead'
p70
(dp71
g3
S'Dead_Snow:_Red_vs._Dead'
p72
ssS'Pioneer Heroes'
p73
(dp74
g17
S'Pioneer_Heroes'
p75
ssS'The Monuments Men'
p76
(dp77
g3
S'The_Monuments_Men'
p78
ssS'Candlestick'
p79
(dp80
g3
S'Candlestick_(film)'
p81
ssS'The Hobbit: The Battle of the Five Armies'
p82
(dp83
g3
S'The_Hobbit:_The_Battle_of_the_Five_Armies'
p84
ssS'Redirected'
p85
(dp86
g3
S'Redirected_(film)'
p87
ssS'Anomalisa'
p88
(dp89
g17
S'Anomalisa'
p90
ssS'Spy'
p91
(dp92
g17
S'Spy_(2015_film)'
p93
ssS'Noah'
p94
(dp95
g3
S'Noah_(2014_film)'
p96
ssS'Sex Tape'
p97
(dp98
g3
S'Sex_Tape_(film)'
p99
ssS'45 Years'
p100
(dp101
g17
S'45_Years'
p102
ssS'Captive'
p103
(dp104
g17
S'Captive_(2015_film)'
p105
ssS"Bridget Jones's Baby"
p106
(dp107
g13
S'Bridget_Jones%27s_Baby'
p108
ssS'Hercules'
p109
(dp110
g3
S'Hercules_(2014_film)'
p111
ssS'20,000 Days on Earth'
p112
(dp113
g3
S'20,000_Days_on_Earth'
p114
ssS'The Darkness'
p115
(dp116
g13
S'The_Darkness_(film)'
p117
ssS'The Clan'
p118
(dp119
g17
S'The_Clan_(2015_film)'
p120
ssS'The Diary of a Teenage Girl'
p121
(dp122
g17
S'The_Diary_of_a_Teenage_Girl'
p123
ssS'San Andreas'
p124
(dp125
g17
S'San_Andreas_(film)'
p126
ssS'Saving Christmas'
p127
(dp128
g3
S'Saving_Christmas'
p129
ssS'Babai'
p130
(dp131
g17
S'Babai_(film)'
p132
ssS'RoboCop'
p133
(dp134
g3
S'RoboCop_(2014_film)'
p135
ssS'The Throne'
p136
(dp137
g17
S'The_Throne_(film)'
p138
ssS'Force Majeure'
p139
(dp140
g3
S'Force_Majeure_(film)'
p141
ssS'Spare Parts'
p142
(dp143
g17
S'Spare_Parts_(film)'
p144
ssS'The Lobster'
p145
(dp146
g17
S'The_Lobster'
p147
ssS'Ant-Man'
p148
(dp149
g17
S'Ant-Man_(film)'
p150
ssS'Ride Along'
p151
(dp152
g3
S'Ride_Along_(film)'
p153
ssS'The Bye Bye Man'
p154
(dp155
g13
S'The_Bye_Bye_Man'
p156
ssS'Goosebumps'
p157
(dp158
g17
S'Goosebumps_(film)'
p159
ssS'Moana'
p160
(dp161
g13
S'Moana_(2016_film)'
p162
ssS'The Better Angels'
p163
(dp164
g3
S'The_Better_Angels_(film)'
p165
ssS'12 Golden Ducks'
p166
(dp167
g17
S'12_Golden_Ducks'
p168
ssS'The Theory of Everything'
p169
(dp170
g3
S'The_Theory_of_Everything_(2014_film)'
p171
ssS'The Brand New Testament'
p172
(dp173
g17
S'The_Brand_New_Testament'
p174
ssS'Southpaw'
p175
(dp176
g17
S'Southpaw_(film)'
p177
ssS'Tevar'
p178
(dp179
g17
S'Tevar'
p180
ssS'Virunga'
p181
(dp182
g3
S'Virunga_(film)'
p183
ssS'Addicted to Fresno'
p184
(dp185
g17
S'Addicted_to_Fresno'
p186
ssS'Batman v Superman: Dawn of Justice'
p187
(dp188
g13
S'Batman_v_Superman:_Dawn_of_Justice'
p189
ssS'The 5th Wave'
p190
(dp191
g13
S'The_5th_Wave_(film)'
p192
ssS'Fantastic Beasts and Where to Find Them'
p193
(dp194
g13
S'Fantastic_Beasts_and_Where_to_Find_Them_(film)'
p195
ssS'Anjaan'
p196
(dp197
g3
S'Anjaan_(2014_film)'
p198
ssS'Calvary'
p199
(dp200
g3
S'Calvary_(film)'
p201
ssS'And So It Goes'
p202
(dp203
g3
S'And_So_It_Goes_(film)'
p204
ssS'Addicted'
p205
(dp206
g3
S'Addicted_(2014_film)'
p207
ssS'Barefoot'
p208
(dp209
g3
S'Barefoot_(film)'
p210
ssS'Tomorrowland'
p211
(dp212
g17
S'Tomorrowland_(film)'
p213
ssS'Hot Pursuit'
p214
(dp215
g17
S'Hot_Pursuit_(2015_film)'
p216
ssS'Bridge of Spies'
p217
(dp218
g17
S'Bridge_of_Spies_(film)'
p219
ssS'The Disappointments Room'
p220
(dp221
g13
S'The_Disappointments_Room'
p222
ssS'Monster Hunt'
p223
(dp224
g17
S'Monster_Hunt'
p225
ssS'Muhammad: The Messenger of God'
p226
(dp227
g17
S'Muhammad:_The_Messenger_of_God_(film)'
p228
ssS'The Raid 2'
p229
(dp230
g3
S'The_Raid_2'
p231
ssS'Ricki and the Flash'
p232
(dp233
g17
S'Ricki_and_the_Flash'
p234
ssS'11 Minutes'
p235
(dp236
g17
S'11_Minutes_(film)'
p237
ssS'My Big Fat Greek Wedding 2'
p238
(dp239
g13
S'My_Big_Fat_Greek_Wedding_2'
p240
ssS'A Monster Calls'
p241
(dp242
g13
S'A_Monster_Calls_(film)'
p243
ssS'By the Sea'
p244
(dp245
g17
S'By_the_Sea_(2015_film)'
p246
ssS'The Program'
p247
(dp248
g17
S'The_Program_(2015_film)'
p249
ssS'Home'
p250
(dp251
g17
S'Home_(2015_animated_film)'
p252
ssS'Bizarre'
p253
(dp254
g17
S'Bizarre_(film)'
p255
ssS'Everybody Wants Some!!'
p256
(dp257
g13
S'Everybody_Wants_Some!!_(film)'
p258
ssS'Son of Saul'
p259
(dp260
g17
S'Son_of_Saul'
p261
ssS'Alexander and the Terrible, Horrible, No Good, Very Bad Day'
p262
(dp263
g3
S'Alexander_and_the_Terrible,_Horrible,_No_Good,_Very_Bad_Day_(film)'
p264
ssS'How to Train Your Dragon 2'
p265
(dp266
g3
S'How_to_Train_Your_Dragon_2'
p267
ssS'Green Room'
p268
(dp269
g13
S'Green_Room_(film)'
p270
ssS'Zoolander 2'
p271
(dp272
g13
S'Zoolander_2'
p273
ssS'The Divergent Series: Insurgent'
p274
(dp275
g17
S'The_Divergent_Series:_Insurgent'
p276
ssS'Genius'
p277
(dp278
g13
S'Genius_(2016_film)'
p279
ssS'The Imitation Game'
p280
(dp281
g3
S'The_Imitation_Game'
p282
ssS'Spooks: The Greater Good'
p283
(dp284
g17
S'Spooks:_The_Greater_Good'
p285
ssS'Inferno'
p286
(dp287
g13
S'Inferno_(2016_film)'
p288
ssS'Mia Madre'
p289
(dp290
g17
S'Mia_Madre'
p291
ssS'Pompeii'
p292
(dp293
g3
S'Pompeii_(film)'
p294
ssS'Where Hope Grows'
p295
(dp296
g3
S'Where_Hope_Grows'
p297
ssS'Agileswari'
p298
(dp299
g17
S'Agileswari'
p300
ssS'Gods of Egypt'
p301
(dp302
g13
S'Gods_of_Egypt_(film)'
p303
ssS'Kubo and the Two Strings'
p304
(dp305
g13
S'Kubo_and_the_Two_Strings'
p306
ssS'Tammy'
p307
(dp308
g3
S'Tammy_(film)'
p309
ssS'I, Frankenstein'
p310
(dp311
g3
S'I,_Frankenstein'
p312
ssS'Fifty Shades of Black'
p313
(dp314
g13
S'Fifty_Shades_of_Black'
p315
ssS'Minions'
p316
(dp317
g17
S'Minions_(film)'
p318
ssS'No Escape'
p319
(dp320
g17
S'No_Escape_(2015_film)'
p321
ssS'The Gallows'
p322
(dp323
g17
S'The_Gallows'
p324
ssS'Divin Enfant'
p325
(dp326
g3
S'Divin_Enfant'
p327
ssS'A Walk in the Woods'
p328
(dp329
g17
S'A_Walk_in_the_Woods_(film)'
p330
ssS'Rams'
p331
(dp332
g17
S'Rams_(film)'
p333
ssS'Timbuktu'
p334
(dp335
g3
S'Timbuktu_(2014_film)'
p336
ssS'Into the Woods'
p337
(dp338
g3
S'Into_the_Woods_(film)'
p339
ssS'That Awkward Moment'
p340
(dp341
g3
S'That_Awkward_Moment'
p342
ssS'Two Men in Town'
p343
(dp344
g3
S'Two_Men_in_Town_(2014_film)'
p345
ssS'Seventh Son'
p346
(dp347
g3
S'Seventh_Son_(film)'
p348
ssS'Poltergeist'
p349
(dp350
g17
S'Poltergeist_(2015_film)'
p351
ssS'Top Five'
p352
(dp353
g3
S'Top_Five'
p354
ssS'Spotlight'
p355
(dp356
g17
S'Spotlight_(film)'
p357
ssS'War Room'
p358
(dp359
g17
S'War_Room_(film)'
p360
ssS'Heneral Luna'
p361
(dp362
g17
S'Heneral_Luna'
p363
ssS'We Are Your Friends'
p364
(dp365
g17
S'We_Are_Your_Friends_(film)'
p366
ssS'The Other Side of the Door'
p367
(dp368
g13
S'The_Other_Side_of_the_Door_(2016_film)'
p369
ssS'Woman in Gold'
p370
(dp371
g17
S'Woman_in_Gold'
p372
ssS'Legend'
p373
(dp374
g17
S'Legend_(2015_film)'
p375
ssS'NH10'
p376
(dp377
g17
S'NH10'
p378
ssS'Black Mass'
p379
(dp380
g17
S'Black_Mass_(film)'
p381
ssS'Be My Cat: A Film for Anne'
p382
(dp383
g17
S'Be_My_Cat:_A_Film_for_Anne'
p384
ssS'Mustang'
p385
(dp386
g17
S'Mustang_(film)'
p387
ssS'The Night Before'
p388
(dp389
g17
S'The_Night_Before_(2015_film)'
p390
ssS'Rob the Mob'
p391
(dp392
g3
S'Rob_the_Mob'
p393
ssS'The Giver'
p394
(dp395
g3
S'The_Giver_(film)'
p396
ssS'Tusk'
p397
(dp398
g3
S'Tusk_(2014_film)'
p399
ssS'Kung Fu Panda 3'
p400
(dp401
g13
S'Kung_Fu_Panda_3'
p402
ssS'Baby(a)lone'
p403
(dp404
g17
S'Baby(a)lone'
p405
ssS'Bad Santa 2'
p406
(dp407
g13
S'Bad_Santa_2'
p408
ssS'Apaye'
p409
(dp410
g3
S'Apaye'
p411
ssS'Infini'
p412
(dp413
g17
S'Infini'
p414
ssS'My Little Pony: Equestria Girls \xe2\x80\x93 Rainbow Rocks'
p415
(dp416
g3
S'My_Little_Pony:_Equestria_Girls_%E2%80%93_Rainbow_Rocks'
p417
ssS'Noble'
p418
(dp419
g3
S'Noble_(film)'
p420
ssS'Hellion'
p421
(dp422
g3
S'Hellion_(film)'
p423
ssS'Beauty and the Beast'
p424
(dp425
g3
S'Beauty_and_the_Beast_(2014_film)'
p426
ssS'Pride and Prejudice and Zombies'
p427
(dp428
g13
S'Pride_and_Prejudice_and_Zombies_(film)'
p429
ssS'Difret'
p430
(dp431
g3
S'Difret'
p432
ssS'Queen of Earth'
p433
(dp434
g17
S'Queen_of_Earth'
p435
ssS'The Walk'
p436
(dp437
g17
S'The_Walk_(2015_film)'
p438
ssS'Draft Day'
p439
(dp440
g3
S'Draft_Day'
p441
ssS'Left Behind'
p442
(dp443
g3
S'Left_Behind_(2014_film)'
p444
ssS'La La Land'
p445
(dp446
g13
S'La_La_Land_(film)'
p447
ssS'The Perfect Guy'
p448
(dp449
g17
S'The_Perfect_Guy_(2015_film)'
p450
ssS'Hotel Transylvania 2'
p451
(dp452
g17
S'Hotel_Transylvania_2'
p453
ssS'The Adventurer: The Curse of the Midas Box'
p454
(dp455
g3
S'The_Adventurer:_The_Curse_of_the_Midas_Box'
p456
ssS'Bang Bang!'
p457
(dp458
g3
S'Bang_Bang!'
p459
ssS"God's Not Dead"
p460
(dp461
g3
S'God%27s_Not_Dead_(film)'
p462
ssS'London Has Fallen'
p463
(dp464
g13
S'London_Has_Fallen'
p465
ssS'Free State of Jones'
p466
(dp467
g13
S'Free_State_of_Jones_(film)'
p468
ssS'The Expendables 3'
p469
(dp470
g3
S'The_Expendables_3'
p471
ssS"They're Watching"
p472
(dp473
g13
S'They%27re_Watching'
p474
ssS'Hands of Stone'
p475
(dp476
g13
S'Hands_of_Stone'
p477
ssS"Daddy's Home"
p478
(dp479
g17
S'Daddy%27s_Home_(film)'
p480
ssS'Trainwreck'
p481
(dp482
g17
S'Trainwreck_(film)'
p483
ssS'Azhar'
p484
(dp485
g13
S'Azhar_(film)'
p486
ssS'Birdman'
p487
(dp488
g3
S'Birdman_(film)'
p489
ssS'Pulan Visaranai 2'
p490
(dp491
g17
S'Pulan_Visaranai_2'
p492
ssS'Wild'
p493
(dp494
g3
S'Wild_(2014_film)'
p495
ssS'Grimsby'
p496
(dp497
g13
S'Grimsby_(film)'
p498
ssS'Deepwater Horizon'
p499
(dp500
g13
S'Deepwater_Horizon_(film)'
p501
ssS'The SpongeBob Movie: Sponge Out of Water'
p502
(dp503
g17
S'The_SpongeBob_Movie:_Sponge_Out_of_Water'
p504
ssS'3 Bahadur'
p505
(dp506
g17
S'3_Bahadur'
p507
ssS'A Few Cubic Meters of Love'
p508
(dp509
g3
S'A_Few_Cubic_Meters_of_Love'
p510
ssS'Fantastic Four'
p511
(dp512
g17
S'Fantastic_Four_(2015_film)'
p513
ssS'Jupiter Ascending'
p514
(dp515
g17
S'Jupiter_Ascending'
p516
ssS'Fury'
p517
(dp518
g3
S'Fury_(2014_film)'
p519
ssS'Blended'
p520
(dp521
g3
S'Blended_(film)'
p522
ssS'The BFG'
p523
(dp524
g13
S'The_BFG_(2016_film)'
p525
ssS'Heaven Is for Real'
p526
(dp527
g3
S'Heaven_Is_for_Real_(film)'
p528
ssS'Slow West'
p529
(dp530
g17
S'Slow_West'
p531
ssS'Dharani'
p532
(dp533
g17
S'Dharani_(film)'
p534
ssS'Captain America: The Winter Soldier'
p535
(dp536
g3
S'Captain_America:_The_Winter_Soldier'
p537
ssS'Maleficent'
p538
(dp539
g3
S'Maleficent_(film)'
p540
ssS'Where to Invade Next'
p541
(dp542
g17
S'Where_to_Invade_Next'
p543
ssS'Regression'
p544
(dp545
g17
S'Regression_(film)'
p546
ssS'Lamb'
p547
(dp548
g17
S'Lamb_(2015_Ethiopian_film)'
p549
ssS'Sinister 2'
p550
(dp551
g17
S'Sinister_2'
p552
ssS'Endless Love'
p553
(dp554
g3
S'Endless_Love_(2014_film)'
p555
ssS'Hitman: Agent 47'
p556
(dp557
g17
S'Hitman:_Agent_47'
p558
ssS'Crimson Peak'
p559
(dp560
g17
S'Crimson_Peak'
p561
ssS'Amnesia'
p562
(dp563
g17
S'Amnesia_(2015_film)'
p564
ssS'The Wedding Ringer'
p565
(dp566
g17
S'The_Wedding_Ringer'
p567
ssS'Kill the Messenger'
p568
(dp569
g3
S'Kill_the_Messenger_(2014_film)'
p570
ssS'Bad Night'
p571
(dp572
g17
S'Bad_Night'
p573
ssS'The Girl on the Train'
p574
(dp575
g13
S'The_Girl_on_the_Train_(film)'
p576
ssS'Camp X-Ray'
p577
(dp578
g3
S'Camp_X-Ray_(film)'
p579
ssS'The Department'
p580
(dp581
g17
S'The_Department_(film)'
p582
ssS'Enclave'
p583
(dp584
g17
S'Enclave_(film)'
p585
ssS'Les Trois Fr\xc3\xa8res, le retour'
p586
(dp587
g3
S'Les_Trois_Fr%C3%A8res,_le_retour'
p588
ssS'Tangerine'
p589
(dp590
g17
S'Tangerine_(film)'
p591
ssS'Need for Speed'
p592
(dp593
g3
S'Need_for_Speed_(film)'
p594
ssS'Get on Up'
p595
(dp596
g3
S'Get_on_Up_(film)'
p597
ssS'Sing'
p598
(dp599
g13
S'Sing_(2016_film)'
p600
ssS'Burnt'
p601
(dp602
g17
S'Burnt_(film)'
p603
ssS'Chappie'
p604
(dp605
g17
S'Chappie_(film)'
p606
ssS'Fifty Shades of Grey'
p607
(dp608
g17
S'Fifty_Shades_of_Grey_(film)'
p609
ssS"Dad's Army"
p610
(dp611
g13
S'Dad%27s_Army_(2016_film)'
p612
ssS'Star Wars: The Force Awakens'
p613
(dp614
g17
S'Star_Wars:_The_Force_Awakens'
p615
ssS'Survivor'
p616
(dp617
g17
S'Survivor_(film)'
p618
ssS'Moira'
p619
(dp620
g17
S'Moira_(film)'
p621
ssS'300: Rise of an Empire'
p622
(dp623
g3
S'300:_Rise_of_an_Empire'
p624
ssS'Almost Christmas'
p625
(dp626
g13
S'Almost_Christmas_(film)'
p627
ssS'Terminator Genisys'
p628
(dp629
g17
S'Terminator_Genisys'
p630
ssS'Youth'
p631
(dp632
g17
S'Youth_(2015_film)'
p633
ssS'Monkey Kingdom'
p634
(dp635
g17
S'Monkey_Kingdom'
p636
ssS"The Huntsman: Winter's War"
p637
(dp638
g13
S'The_Huntsman:_Winter%27s_War'
p639
ssS'The Idolmaster Movie: Beyond the Brilliant Future!'
p640
(dp641
g3
S'The_Idolmaster_Movie:_Beyond_the_Brilliant_Future!'
p642
ssS'To the Fore'
p643
(dp644
g17
S'To_the_Fore'
p645
ssS'Mississippi Grind'
p646
(dp647
g17
S'Mississippi_Grind'
p648
ssS'Ice Age: Collision Course'
p649
(dp650
g13
S'Ice_Age:_Collision_Course'
p651
ssS"Billy Lynn's Long Halftime Walk"
p652
(dp653
g13
S'Billy_Lynn%27s_Long_Halftime_Walk_(film)'
p654
ssS'Entourage'
p655
(dp656
g17
S'Entourage_(film)'
p657
ssS'The Assassin'
p658
(dp659
g17
S'The_Assassin_(2015_film)'
p660
ssS'I Origins'
p661
(dp662
g3
S'I_Origins'
p663
ssS'Jwanita'
p664
(dp665
g17
S'Jwanita'
p666
ssS'Macbeth'
p667
(dp668
g17
S'Macbeth_(2015_film)'
p669
ssS'Patriots Day'
p670
(dp671
g13
S'Patriots_Day_(film)'
p672
ssS'The Magnificent Seven'
p673
(dp674
g13
S'The_Magnificent_Seven_(2016_film)'
p675
ssS'The Duff'
p676
(dp677
g17
S'The_Duff'
p678
ssS'Arabian Nights'
p679
(dp680
g17
S'Arabian_Nights_(2015_film)'
p681
ssS'Sausage Party'
p682
(dp683
g13
S'Sausage_Party'
p684
ssS'Earth to Echo'
p685
(dp686
g3
S'Earth_to_Echo'
p687
ssS'Obvious Child'
p688
(dp689
g3
S'Obvious_Child'
p690
ssS'Paul Blart: Mall Cop 2'
p691
(dp692
g17
S'Paul_Blart:_Mall_Cop_2'
p693
ssS'Neighbors 2: Sorority Rising'
p694
(dp695
g13
S'Neighbors_2:_Sorority_Rising'
p696
ssS'The D Train'
p697
(dp698
g17
S'The_D_Train'
p699
ssS'Horrible Bosses 2'
p700
(dp701
g3
S'Horrible_Bosses_2'
p702
ssS'Eye in the Sky'
p703
(dp704
g17
S'Eye_in_the_Sky_(2015_film)'
p705
ssS'The Summer of Sangail\xc4\x97'
p706
(dp707
g17
S'The_Summer_of_Sangail%C4%97'
p708
ssS'Magic in the Moonlight'
p709
(dp710
g3
S'Magic_in_the_Moonlight'
p711
ssS'Return to Sender'
p712
(dp713
g17
S'Return_to_Sender_(2015_film)'
p714
ssS'The Club'
p715
(dp716
g17
S'The_Club_(2015_film)'
p717
ssS'Old Fashioned'
p718
(dp719
g17
S'Old_Fashioned_(film)'
p720
ssS'Criminal'
p721
(dp722
g13
S'Criminal_(2016_film)'
p723
ssS'Hardcore Henry'
p724
(dp725
g13
S'Hardcore_Henry'
p726
ssS'The Judge'
p727
(dp728
g3
S'The_Judge_(2014_film)'
p729
ssS'Joy'
p730
(dp731
g17
S'Joy_(film)'
p732
ssS'Manto'
p733
(dp734
g17
S'Manto_(film)'
p735
ssS'Nine Lives'
p736
(dp737
g13
S'Nine_Lives_(2016_film)'
p738
ssS'Being Mrs Elliot'
p739
(dp740
g3
S'Being_Mrs_Elliot'
p741
ssS'McFarland, USA'
p742
(dp743
g17
S'McFarland,_USA'
p744
ssS'The Guest'
p745
(dp746
g3
S'The_Guest_(film)'
p747
ssS'Ghostbusters'
p748
(dp749
g13
S'Ghostbusters_(2016_film)'
p750
ssS'Pawn Sacrifice'
p751
(dp752
g17
S'Pawn_Sacrifice'
p753
ssS'Still Alice'
p754
(dp755
g3
S'Still_Alice'
p756
ssS'Taken 3'
p757
(dp758
g3
S'Taken_3'
p759
ssS'Night at the Museum: Secret of the Tomb'
p760
(dp761
g3
S'Night_at_the_Museum:_Secret_of_the_Tomb'
p762
ssS'If I Stay'
p763
(dp764
g3
S'If_I_Stay_(film)'
p765
ssS'The Jungle Book'
p766
(dp767
g13
S'The_Jungle_Book_(2016_film)'
p768
ssS'Sin City: A Dame to Kill For'
p769
(dp770
g3
S'Sin_City:_A_Dame_to_Kill_For'
p771
ssS'Million Dollar Arm'
p772
(dp773
g3
S'Million_Dollar_Arm'
p774
ssS'The Maze Runner'
p775
(dp776
g3
S'The_Maze_Runner_(film)'
p777
ssS'The Last Witch Hunter'
p778
(dp779
g17
S'The_Last_Witch_Hunter'
p780
ssS'Holiday: A Soldier Is Never Off Duty'
p781
(dp782
g3
S'Holiday:_A_Soldier_Is_Never_Off_Duty'
p783
ssS'The Secret Life of Pets'
p784
(dp785
g13
S'The_Secret_Life_of_Pets'
p786
ssS'Krampus'
p787
(dp788
g17
S'Krampus_(film)'
p789
ssS'Kidnapping Freddy Heineken'
p790
(dp791
g17
S'Kidnapping_Freddy_Heineken'
p792
ssS'Dilwale'
p793
(dp794
g17
S'Dilwale_(2015_film)'
p795
ssS'The Mermaid'
p796
(dp797
g13
S'The_Mermaid_(2016_film)'
p798
ssS'USS Indianapolis: Men of Courage'
p799
(dp800
g13
S'USS_Indianapolis:_Men_of_Courage'
p801
ssS'Jurassic World'
p802
(dp803
g17
S'Jurassic_World'
p804
ssS'Secret in Their Eyes'
p805
(dp806
g17
S'Secret_in_Their_Eyes'
p807
ssS'22 Jump Street'
p808
(dp809
g3
S'22_Jump_Street'
p810
ssS'The High Sun'
p811
(dp812
g17
S'The_High_Sun'
p813
ssS'Triple 9'
p814
(dp815
g13
S'Triple_9'
p816
ssS'Independence Day: Resurgence'
p817
(dp818
g13
S'Independence_Day:_Resurgence'
p819
ssS'Unfinished Business'
p820
(dp821
g17
S'Unfinished_Business_(2015_film)'
p822
ssS'Karachi Se Lahore'
p823
(dp824
g17
S'Karachi_Se_Lahore'
p825
ssS'Penguins of Madagascar'
p826
(dp827
g3
S'Penguins_of_Madagascar'
p828
ssS'Whiplash'
p829
(dp830
g3
S'Whiplash_(2014_film)'
p831
ssS'Jawani Phir Nahi Ani'
p832
(dp833
g17
S'Jawani_Phir_Nahi_Ani'
p834
ssS"Nativity 3: Dude, Where's My Donkey?"
p835
(dp836
g3
S'Nativity_3:_Dude,_Where%27s_My_Donkey%3F'
p837
ssS'Deliver Us from Evil'
p838
(dp839
g3
S'Deliver_Us_from_Evil_(2014_film)'
p840
ssS'The Gift'
p841
(dp842
g17
S'The_Gift_(2015_film)'
p843
ssS'Alive Inside: A Story of Music and Memory'
p844
(dp845
g3
S'Alive_Inside:_A_Story_of_Music_and_Memory'
p846
ssS'Demolition'
p847
(dp848
g13
S'Demolition_(2015_film)'
p849
ssS'Sicario'
p850
(dp851
g17
S'Sicario_(2015_film)'
p852
ssS'Jason Bourne'
p853
(dp854
g13
S'Jason_Bourne_(film)'
p855
ssS'The Space Between Us'
p856
(dp857
g13
S'The_Space_Between_Us_(film)'
p858
ssS'Selma'
p859
(dp860
g3
S'Selma_(film)'
p861
ssS'The Signal'
p862
(dp863
g3
S'The_Signal_(2014_film)'
p864
ssS'Desert Dancer'
p865
(dp866
g3
S'Desert_Dancer'
p867
ssS'Strange Magic'
p868
(dp869
g17
S'Strange_Magic_(film)'
p870
ssS'Microbe & Gasoline'
p871
(dp872
g17
S'Microbe_%26_Gasoline'
p873
ssS'Dark Places'
p874
(dp875
g17
S'Dark_Places_(2015_film)'
p876
ssS'2 States'
p877
(dp878
g3
S'2_States_(film)'
p879
ssS'A Most Wanted Man'
p880
(dp881
g3
S'A_Most_Wanted_Man_(film)'
p882
ssS'Make a Move'
p883
(dp884
g3
S'Make_a_Move_(film)'
p885
ssS"Assassin's Creed"
p886
(dp887
g13
S'Assassin%27s_Creed_(film)'
p888
ssS'Jane Got a Gun'
p889
(dp890
g13
S'Jane_Got_a_Gun'
p891
ssS'Run All Night'
p892
(dp893
g17
S'Run_All_Night_(film)'
p894
ssS'Snowden'
p895
(dp896
g13
S'Snowden_(film)'
p897
ssS'The Dark Valley'
p898
(dp899
g3
S'The_Dark_Valley'
p900
ssS'The Martian'
p901
(dp902
g17
S'The_Martian_(film)'
p903
ssS'The Man from U.N.C.L.E.'
p904
(dp905
g17
S'The_Man_from_U.N.C.L.E._(film)'
p906
ssS'Yves Saint Laurent'
p907
(dp908
g3
S'Yves_Saint_Laurent_(film)'
p909
ssS'Blackhat'
p910
(dp911
g17
S'Blackhat_(film)'
p912
ssS'The November Man'
p913
(dp914
g3
S'The_November_Man'
p915
ssS"'71"
p916
(dp917
g3
S'%2771_(film)'
p918
ssS'The Founder'
p919
(dp920
g13
S'The_Founder_(film)'
p921
ssS'Mary Kom'
p922
(dp923
g3
S'Mary_Kom_(film)'
p924
ssS'X-Men: Days of Future Past'
p925
(dp926
g3
S'X-Men:_Days_of_Future_Past'
p927
ssS'Brick Mansions'
p928
(dp929
g3
S'Brick_Mansions'
p930
ssS'How to Win at Checkers (Every Time)'
p931
(dp932
g17
S'How_to_Win_at_Checkers_(Every_Time)'
p933
ssS'Veronica Mars'
p934
(dp935
g3
S'Veronica_Mars_(film)'
p936
ssS'Do You Believe?'
p937
(dp938
g17
S'Do_You_Believe%3F_(film)'
p939
ssS'Men Who Save the World'
p940
(dp941
g3
S'Men_Who_Save_the_World'
p942
ssS"Pete's Dragon"
p943
(dp944
g13
S'Pete%27s_Dragon_(2016_film)'
p945
ssS'A Long Way Down'
p946
(dp947
g3
S'A_Long_Way_Down_(film)'
p948
ssS"Moms' Night Out"
p949
(dp950
g3
S'Moms%27_Night_Out'
p951
ssS'Love the Coopers'
p952
(dp953
g17
S'Love_the_Coopers'
p954
ssS'Piku'
p955
(dp956
g17
S'Piku'
p957
ssS'The Angry Birds Movie'
p958
(dp959
g13
S'The_Angry_Birds_Movie'
p960
ssS'Born to Dance'
p961
(dp962
g17
S'Born_to_Dance_(2015_film)'
p963
ssS'The Messenger'
p964
(dp965
g17
S'The_Messenger_(2015_horror_film)'
p966
ssS'The Salvation'
p967
(dp968
g3
S'The_Salvation_(film)'
p969
ssS'Dumb and Dumber To'
p970
(dp971
g3
S'Dumb_and_Dumber_To'
p972
ssS'Gunday'
p973
(dp974
g3
S'Gunday'
p975
ssS"Knocking on Heaven's Door"
p976
(dp977
g3
S'Knocking_on_Heaven%27s_Door_(2014_film)'
p978
ssS'Absolutely Anything'
p979
(dp980
g17
S'Absolutely_Anything'
p981
ssS'Love'
p982
(dp983
g17
S'Love_(2015_film)'
p984
ssS'Finding Fanny'
p985
(dp986
g3
S'Finding_Fanny'
p987
ssS'Baba Joon'
p988
(dp989
g17
S'Baba_Joon'
p990
ssS'Boyhood'
p991
(dp992
g3
S'Boyhood_(film)'
p993
ssS'Rogue One'
p994
(dp995
g13
S'Rogue_One'
p996
ssS'A Royal Night Out'
p997
(dp998
g17
S'A_Royal_Night_Out'
p999
ssS'Vessel'
p1000
(dp1001
g3
S'Vessel_(film)'
p1002
ssS'The Woman in Black: Angel of Death'
p1003
(dp1004
g3
S'The_Woman_in_Black:_Angel_of_Death'
p1005
ssS'Accidental Love'
p1006
(dp1007
g17
S'Accidental_Love'
p1008
ssS'The Sweet Escape'
p1009
(dp1010
g17
S'The_Sweet_Escape_(film)'
p1011
ssS'The Legend of Barney Thomson'
p1012
(dp1013
g17
S'The_Legend_of_Barney_Thomson'
p1014
ssS'The Peanuts Movie'
p1015
(dp1016
g17
S'The_Peanuts_Movie'
p1017
ssS'St. Vincent'
p1018
(dp1019
g3
S'St._Vincent_(film)'
p1020
ssS'Furious 7'
p1021
(dp1022
g17
S'Furious_7'
p1023
ssS'As Above, So Below'
p1024
(dp1025
g3
S'As_Above,_So_Below_(film)'
p1026
ssS'The Witch'
p1027
(dp1028
g13
S'The_Witch_(2015_film)'
p1029
ssS'Now You See Me 2'
p1030
(dp1031
g13
S'Now_You_See_Me_2'
p1032
ssS'Pan'
p1033
(dp1034
g17
S'Pan_(2015_film)'
p1035
ssS'Detective Conan: Dimensional Sniper'
p1036
(dp1037
g3
S'Detective_Conan:_Dimensional_Sniper'
p1038
ssS'I Saw the Light'
p1039
(dp1040
g13
S'I_Saw_the_Light_(film)'
p1041
ssS'Isai'
p1042
(dp1043
g17
S'Isai'
p1044
ssS'You Carry Me'
p1045
(dp1046
g17
S'You_Carry_Me_(film)'
p1047
ssS'The End of the Tour'
p1048
(dp1049
g17
S'The_End_of_the_Tour'
p1050
ssS'The Trip to Italy'
p1051
(dp1052
g3
S'The_Trip_to_Italy'
p1053
ssS'ABCD 2'
p1054
(dp1055
g17
S'ABCD_2'
p1056
ssS'The Dressmaker'
p1057
(dp1058
g17
S'The_Dressmaker_(2015_film)'
p1059
ssS'It Follows'
p1060
(dp1061
g3
S'It_Follows'
p1062
ssS'Bastards'
p1063
(dp1064
g13
S'Bastards_(2016_film)'
p1065
ssS'Quo Vado?'
p1066
(dp1067
g13
S'Quo_Vado%3F'
p1068
ssS'Danny Collins'
p1069
(dp1070
g17
S'Danny_Collins_(film)'
p1071
ssS'Project Almanac'
p1072
(dp1073
g17
S'Project_Almanac'
p1074
ssS'A Most Violent Year'
p1075
(dp1076
g3
S'A_Most_Violent_Year'
p1077
ssS'Midnight Special'
p1078
(dp1079
g13
S'Midnight_Special_(film)'
p1080
ssS'Trumbo'
p1081
(dp1082
g17
S'Trumbo_(2015_film)'
p1083
ssS'Lights Out'
p1084
(dp1085
g13
S'Lights_Out_(2016_film)'
p1086
ssS'X+Y'
p1087
(dp1088
g3
S'X%2BY'
p1089
ssS'Keanu'
p1090
(dp1091
g13
S'Keanu_(film)'
p1092
ssS'Lucy'
p1093
(dp1094
g3
S'Lucy_(2014_film)'
p1095
ssS'The Paradise Suite'
p1096
(dp1097
g17
S'The_Paradise_Suite_(film)'
p1098
ssS'Presos'
p1099
(dp1100
g17
S'Presos'
p1101
ssS'Run'
p1102
(dp1103
g3
S'Run_(2014_film)'
p1104
ssS'The Gunman'
p1105
(dp1106
g17
S'The_Gunman_(film)'
p1107
ssS'A Million Ways to Die in the West'
p1108
(dp1109
g3
S'A_Million_Ways_to_Die_in_the_West'
p1110
ssS'Nightcrawler'
p1111
(dp1112
g3
S'Nightcrawler_(film)'
p1113
ssS'Kidnapped for Christ'
p1114
(dp1115
g3
S'Kidnapped_for_Christ'
p1116
ssS'Son of God'
p1117
(dp1118
g3
S'Son_of_God_(film)'
p1119
ssS'Godzilla'
p1120
(dp1121
g3
S'Godzilla_(2014_film)'
p1122
ssS'The Lady in the Van'
p1123
(dp1124
g17
S'The_Lady_in_the_Van'
p1125
ssS'Supercondriaque'
p1126
(dp1127
g3
S'Supercondriaque'
p1128
ssS'Ex Machina'
p1129
(dp1130
g17
S'Ex_Machina_(film)'
p1131
ssS'Knight of Cups'
p1132
(dp1133
g13
S'Knight_of_Cups_(film)'
p1134
ssS'Transcendence'
p1135
(dp1136
g3
S'Transcendence_(2014_film)'
p1137
ssS'Yennai Arindhaal'
p1138
(dp1139
g17
S'Yennai_Arindhaal'
p1140
ssS'Baahubali: The Beginning'
p1141
(dp1142
g17
S'Baahubali:_The_Beginning'
p1143
ssS'Les Anarchistes'
p1144
(dp1145
g17
S'Les_Anarchistes'
p1146
ssS'The Lazarus Effect'
p1147
(dp1148
g17
S'The_Lazarus_Effect_(2015_film)'
p1149
ssS'Get Hard'
p1150
(dp1151
g17
S'Get_Hard'
p1152
ssS"Winter's Tale"
p1153
(dp1154
g3
S'Winter%27s_Tale_(film)'
p1155
ssS'Rio 2'
p1156
(dp1157
g3
S'Rio_2'
p1158
ssS'Spectral'
p1159
(dp1160
g13
S'Spectral_(film)'
p1161
ssS'Deadpool'
p1162
(dp1163
g13
S'Deadpool_(film)'
p1164
ssS'Muppets Most Wanted'
p1165
(dp1166
g3
S'Muppets_Most_Wanted'
p1167
ssS'Advantageous'
p1168
(dp1169
g17
S'Advantageous'
p1170
ssS'The Fluffy Movie'
p1171
(dp1172
g3
S'The_Fluffy_Movie'
p1173
ssS'Storks'
p1174
(dp1175
g13
S'Storks_(film)'
p1176
ssS'Insidious: Chapter 3'
p1177
(dp1178
g17
S'Insidious:_Chapter_3'
p1179
ssS'The Rover'
p1180
(dp1181
g3
S'The_Rover_(2014_film)'
p1182
ssS'Knock Knock'
p1183
(dp1184
g17
S'Knock_Knock_(2015_film)'
p1185
ssS'20 Once Again'
p1186
(dp1187
g17
S'20_Once_Again'
p1188
ssS'Planes: Fire & Rescue'
p1189
(dp1190
g3
S'Planes:_Fire_%26_Rescue'
p1191
ssS'Goat'
p1192
(dp1193
g17
S'Goat_(2015_film)'
p1194
ssS'The Quiet Ones'
p1195
(dp1196
g3
S'The_Quiet_Ones_(2014_film)'
p1197
ssS'Divergent'
p1198
(dp1199
g3
S'Divergent_(film)'
p1200
ssS"Jacky in Women's Kingdom"
p1201
(dp1202
g3
S'Jacky_in_Women%27s_Kingdom'
p1203
ssS'Zootopia'
p1204
(dp1205
g13
S'Zootopia'
p1206
ssS'Jack Ryan: Shadow Recruit'
p1207
(dp1208
g3
S'Jack_Ryan:_Shadow_Recruit'
p1209
ssS'Jalaibee'
p1210
(dp1211
g17
S'Jalaibee'
p1212
ssS'Bad Moms'
p1213
(dp1214
g13
S'Bad_Moms'
p1215
ssS'Middle School: The Worst Years of My Life'
p1216
(dp1217
g13
S'Middle_School:_The_Worst_Years_of_My_Life_(film)'
p1218
ssS"Mother's Day"
p1219
(dp1220
g13
S'Mother%27s_Day_(2016_film)'
p1221
ssS'American Sniper'
p1222
(dp1223
g3
S'American_Sniper'
p1224
ssS'10 Cloverfield Lane'
p1225
(dp1226
g13
S'10_Cloverfield_Lane'
p1227
ssS'Island of Lemurs: Madagascar'
p1228
(dp1229
g3
S'Island_of_Lemurs:_Madagascar'
p1230
ssS'The Anomaly'
p1231
(dp1232
g3
S'The_Anomaly'
p1233
ssS'Pixels'
p1234
(dp1235
g17
S'Pixels_(2015_film)'
p1236
ssS'Exodus: Gods and Kings'
p1237
(dp1238
g3
S'Exodus:_Gods_and_Kings'
p1239
ssS'Ben-Hur'
p1240
(dp1241
g13
S'Ben-Hur_(2016_film)'
p1242
ssS'Straight Outta Compton'
p1243
(dp1244
g17
S'Straight_Outta_Compton_(2015_film)'
p1245
ssS'Man Up'
p1246
(dp1247
g17
S'Man_Up_(film)'
p1248
ssS'The Vatican Tapes'
p1249
(dp1250
g17
S'The_Vatican_Tapes'
p1251
ssS'Honey Night'
p1252
(dp1253
g17
S'Honey_Night'
p1254
ssS'The Conjuring 2'
p1255
(dp1256
g13
S'The_Conjuring_2'
p1257
ssS'Jack Reacher: Never Go Back'
p1258
(dp1259
g13
S'Jack_Reacher:_Never_Go_Back'
p1260
ssS'A War'
p1261
(dp1262
g17
S'A_War'
p1263
ssS'Arrows of the Thunder Dragon'
p1264
(dp1265
g17
S'Arrows_of_the_Thunder_Dragon'
p1266
ssS'Beyond the Lights'
p1267
(dp1268
g3
S'Beyond_the_Lights'
p1269
ssS"Don't Breathe"
p1270
(dp1271
g13
S'Don%27t_Breathe_(2016_film)'
p1272
ssS'Pok\xc3\xa9mon the Movie: Diancie and the Cocoon of Destruction'
p1273
(dp1274
g3
S'Pok%C3%A9mon_the_Movie:_Diancie_and_the_Cocoon_of_Destruction'
p1275
ssS'Mistress America'
p1276
(dp1277
g17
S'Mistress_America'
p1278
ssS'The Drop'
p1279
(dp1280
g3
S'The_Drop_(film)'
p1281
ssS'The Fencer'
p1282
(dp1283
g17
S'The_Fencer'
p1284
ssS'Thottal Thodarum'
p1285
(dp1286
g17
S'Thottal_Thodarum'
p1287
ssS'Victor Frankenstein'
p1288
(dp1289
g17
S'Victor_Frankenstein_(film)'
p1290
ssS'Mike and Dave Need Wedding Dates'
p1291
(dp1292
g13
S'Mike_and_Dave_Need_Wedding_Dates'
p1293
ssS'7 Letters'
p1294
(dp1295
g17
S'7_Letters'
p1296
ssS'Boo! A Madea Halloween'
p1297
(dp1298
g13
S'Boo!_A_Madea_Halloween'
p1299
ssS'Little Boy'
p1300
(dp1301
g17
S'Little_Boy_(film)'
p1302
ssS'Bajrangi Bhaijaan'
p1303
(dp1304
g17
S'Bajrangi_Bhaijaan'
p1305
ssS'The Equalizer'
p1306
(dp1307
g3
S'The_Equalizer_(film)'
p1308
ssS'Killadi'
p1309
(dp1310
g17
S'Killadi'
p1311
ssS'Rings'
p1312
(dp1313
g13
S'Rings_(2016_film)'
p1314
ssS'Broken Horses'
p1315
(dp1316
g17
S'Broken_Horses'
p1317
ssS'Ixcanul'
p1318
(dp1319
g17
S'Ixcanul'
p1320
ssS'Vere Vazhi Ille'
p1321
(dp1322
g17
S'Vere_Vazhi_Ille'
p1323
ssS'Jersey Boys'
p1324
(dp1325
g3
S'Jersey_Boys_(film)'
p1326
ssS'The Monkey King 2'
p1327
(dp1328
g13
S'The_Monkey_King_2'
p1329
ssS'The Case Against 8'
p1330
(dp1331
g3
S'The_Case_Against_8'
p1332
ssS'The Breakup Guru'
p1333
(dp1334
g3
S'The_Breakup_Guru'
p1335
ssS'Unbroken'
p1336
(dp1337
g3
S'Unbroken_(film)'
p1338
ssS'Singham Returns'
p1339
(dp1340
g3
S'Singham_Returns'
p1341
ssS'Sabotage'
p1342
(dp1343
g3
S'Sabotage_(2014_film)'
p1344
ssS'Z for Zachariah'
p1345
(dp1346
g17
S'Z_for_Zachariah_(film)'
p1347
ssS"Mrs. Brown's Boys D'Movie"
p1348
(dp1349
g3
S'Mrs._Brown%27s_Boys_D%27Movie'
p1350
ssS'Norm of the North'
p1351
(dp1352
g13
S'Norm_of_the_North'
p1353
ssS'Vampire Academy'
p1354
(dp1355
g3
S'Vampire_Academy_(film)'
p1356
ssS'Big Hero 6'
p1357
(dp1358
g3
S'Big_Hero_6_(film)'
p1359
ssS'Stonewall'
p1360
(dp1361
g17
S'Stonewall_(2015_film)'
p1362
ssS'Wolf Totem'
p1363
(dp1364
g17
S'Wolf_Totem_(film)'
p1365
ssS'Race'
p1366
(dp1367
g13
S'Race_(2016_film)'
p1368
ssS'Faith of Our Fathers'
p1369
(dp1370
g17
S'Faith_of_Our_Fathers_(film)'
p1371
ssS'The Nut Job'
p1372
(dp1373
g3
S'The_Nut_Job'
p1374
ssS'Annie'
p1375
(dp1376
g3
S'Annie_(2014_film)'
p1377
ssS'Shaun the Sheep Movie'
p1378
(dp1379
g17
S'Shaun_the_Sheep_Movie'
p1380
ssS'Maggie'
p1381
(dp1382
g17
S'Maggie_(film)'
p1383
ssS'The Perfect Match'
p1384
(dp1385
g13
S'The_Perfect_Match_(2016_film)'
p1386
ssS'The Edge of Seventeen'
p1387
(dp1388
g13
S'The_Edge_of_Seventeen'
p1389
ssS'Freeheld'
p1390
(dp1391
g17
S'Freeheld_(2015_film)'
p1392
ssS'Focus'
p1393
(dp1394
g17
S'Focus_(2015_film)'
p1395
ssS'Into the Storm'
p1396
(dp1397
g3
S'Into_the_Storm_(2014_film)'
p1398
ssS'The Wave'
p1399
(dp1400
g17
S'The_Wave_(2015_film)'
p1401
ssS'About Last Night'
p1402
(dp1403
g3
S'About_Last_Night_(2014_film)'
p1404
ssS'True Story'
p1405
(dp1406
g17
S'True_Story_(film)'
p1407
ssS'The Shallows'
p1408
(dp1409
g13
S'The_Shallows_(film)'
p1410
ssS'London Road'
p1411
(dp1412
g17
S'London_Road_(film)'
p1413
ssS'The Young Messiah'
p1414
(dp1415
g13
S'The_Young_Messiah_(film)'
p1416
ssS'The Interview'
p1417
(dp1418
g3
S'The_Interview_(2014_film)'
p1419
ssS"Let's Be Cops"
p1420
(dp1421
g3
S'Let%27s_Be_Cops'
p1422
ssS'No Good Deed'
p1423
(dp1424
g3
S'No_Good_Deed_(2014_film)'
p1425
ssS'Saint Laurent'
p1426
(dp1427
g3
S'Saint_Laurent_(film)'
p1428
ssS'Risen'
p1429
(dp1430
g13
S'Risen_(2016_film)'
p1431
ssS'Foxcatcher'
p1432
(dp1433
g3
S'Foxcatcher'
p1434
ssS'Badlapur'
p1435
(dp1436
g17
S'Badlapur_(film)'
p1437
ssS'The Lego Movie'
p1438
(dp1439
g3
S'The_Lego_Movie'
p1440
ssS'Me Before You'
p1441
(dp1442
g13
S'Me_Before_You_(film)'
p1443
ssS'Angry Video Game Nerd: The Movie'
p1444
(dp1445
g3
S'Angry_Video_Game_Nerd:_The_Movie'
p1446
ssS'Wish I Was Here'
p1447
(dp1448
g3
S'Wish_I_Was_Here'
p1449
ssS'Magic Mike XXL'
p1450
(dp1451
g17
S'Magic_Mike_XXL'
p1452
ssS'Walk of Shame'
p1453
(dp1454
g3
S'Walk_of_Shame_(film)'
p1455
ssS'Brooklyn'
p1456
(dp1457
g17
S'Brooklyn_(film)'
p1458
ssS"Giovanni's Island"
p1459
(dp1460
g3
S'Giovanni%27s_Island'
p1461
ssS"Devil's Due"
p1462
(dp1463
g3
S'Devil%27s_Due_(film)'
p1464
ssS'Stand by Me Doraemon'
p1465
(dp1466
g3
S'Stand_by_Me_Doraemon'
p1467
ssS'He Named Me Malala'
p1468
(dp1469
g17
S'He_Named_Me_Malala'
p1470
ssS'600 Miles'
p1471
(dp1472
g17
S'600_Miles'
p1473
ssS'Allied'
p1474
(dp1475
g13
S'Allied_(film)'
p1476
ssS'In the Heart of the Sea'
p1477
(dp1478
g17
S'In_the_Heart_of_the_Sea_(film)'
p1479
ssS'Doctor Strange'
p1480
(dp1481
g13
S'Doctor_Strange_(film)'
p1482
ssS'Aferim!'
p1483
(dp1484
g17
S'Aferim!'
p1485
ssS'The Second Best Exotic Marigold Hotel'
p1486
(dp1487
g17
S'The_Second_Best_Exotic_Marigold_Hotel'
p1488
ssS'Dumbbells'
p1489
(dp1490
g3
S'Dumbbells_(film)'
p1491
ssS'Vedalam'
p1492
(dp1493
g17
S'Vedalam'
p1494
ssS'Pitch Perfect 2'
p1495
(dp1496
g17
S'Pitch_Perfect_2'
p1497
ssS'Under Milk Wood'
p1498
(dp1499
g17
S'Under_Milk_Wood_(2015_film)'
p1500
ssS'Interstellar'
p1501
(dp1502
g3
S'Interstellar_(film)'
p1503
ssS'Everest'
p1504
(dp1505
g17
S'Everest_(2015_film)'
p1506
ssS'The Finest Hours'
p1507
(dp1508
g13
S'The_Finest_Hours_(2016_film)'
p1509
ssS'The Hateful Eight'
p1510
(dp1511
g17
S'The_Hateful_Eight'
p1512
ssS'Gabbar is Back'
p1513
(dp1514
g17
S'Gabbar_is_Back'
p1515
ssS'The Book of Life'
p1516
(dp1517
g3
S'The_Book_of_Life_(2014_film)'
p1518
ssS'The Fault in Our Stars'
p1519
(dp1520
g3
S'The_Fault_in_Our_Stars_(film)'
p1521
ssS'The Big Short'
p1522
(dp1523
g17
S'The_Big_Short_(film)'
p1524
ssS'Florence Foster Jenkins'
p1525
(dp1526
g13
S'Florence_Foster_Jenkins_(film)'
p1527
ssS'Fiston'
p1528
(dp1529
g3
S'Fiston'
p1530
ssS'Finding Dory'
p1531
(dp1532
g13
S'Finding_Dory'
p1533
ssS'Suite Fran\xc3\xa7aise'
p1534
(dp1535
g17
S'Suite_Fran%C3%A7aise_(film)'
p1536
ssS'Unfriended'
p1537
(dp1538
g3
S'Unfriended'
p1539
ssS'X-Men: Apocalypse'
p1540
(dp1541
g13
S'X-Men:_Apocalypse'
p1542
ssS'Captain America: Civil War'
p1543
(dp1544
g13
S'Captain_America:_Civil_War'
p1545
ssS'Vacation'
p1546
(dp1547
g17
S'Vacation_(2015_film)'
p1548
ssS'The Revenant'
p1549
(dp1550
g17
S'The_Revenant_(2015_film)'
p1551
ssS'Better Living Through Chemistry'
p1552
(dp1553
g3
S'Better_Living_Through_Chemistry_(film)'
p1554
ssS'Miracles from Heaven'
p1555
(dp1556
g13
S'Miracles_from_Heaven_(film)'
p1557
ssS'The Bad Education Movie'
p1558
(dp1559
g17
S'The_Bad_Education_Movie'
p1560
ssS'The Inbetweeners 2'
p1561
(dp1562
g3
S'The_Inbetweeners_2'
p1563
ssS"God's Not Dead 2"
p1564
(dp1565
g13
S'God%27s_Not_Dead_2'
p1566
ssS'Big Eyes'
p1567
(dp1568
g3
S'Big_Eyes'
p1569
ssS'Jessabelle'
p1570
(dp1571
g3
S'Jessabelle'
p1572
ssS'The Transporter Refueled'
p1573
(dp1574
g17
S'The_Transporter_Refueled'
p1575
ssS'Dope'
p1576
(dp1577
g17
S'Dope_(2015_film)'
p1578
ssS'A Brony Tale'
p1579
(dp1580
g3
S'A_Brony_Tale'
p1581
ssS'The Intern'
p1582
(dp1583
g17
S'The_Intern_(2015_film)'
p1584
ssS'The Good Lie'
p1585
(dp1586
g3
S'The_Good_Lie'
p1587
ssS'Scouts Guide to the Zombie Apocalypse'
p1588
(dp1589
g17
S'Scouts_Guide_to_the_Zombie_Apocalypse'
p1590
ssS'Alice Through the Looking Glass'
p1591
(dp1592
g13
S'Alice_Through_the_Looking_Glass_(film)'
p1593
ssS'Cicak Man 3'
p1594
(dp1595
g17
S'Cicak_Man_3'
p1596
ssS'Carol'
p1597
(dp1598
g17
S'Carol_(film)'
p1599
ssS'The Angriest Man in Brooklyn'
p1600
(dp1601
g3
S'The_Angriest_Man_in_Brooklyn'
p1602
ssS'Before I Disappear'
p1603
(dp1604
g3
S'Before_I_Disappear'
p1605
ssS'Dear White People'
p1606
(dp1607
g3
S'Dear_White_People'
p1608
ssS'Room'
p1609
(dp1610
g17
S'Room_(2015_film)'
p1611
ssS'I'
p1612
(dp1613
g17
S'I_(film)'
p1614
ssS'Inside Out'
p1615
(dp1616
g17
S'Inside_Out_(2015_film)'
p1617
ssS'The Boy'
p1618
(dp1619
g13
S'The_Boy_(2016_film)'
p1620
ssS'Spectre'
p1621
(dp1622
g17
S'Spectre_(2015_film)'
p1623
ssS'Miss You Already'
p1624
(dp1625
g17
S'Miss_You_Already'
p1626
ssS'Maya'
p1627
(dp1628
g17
S'Maya_(2015_Pakistani_film)'
p1629
ssS'Our Everyday Life'
p1630
(dp1631
g17
S'Our_Everyday_Life'
p1632
ssS'Touring Talkies'
p1633
(dp1634
g17
S'Touring_Talkies'
p1635
ssS'Neighbors'
p1636
(dp1637
g3
S'Neighbors_(2014_film)'
p1638
ssS'Hot Tub Time Machine 2'
p1639
(dp1640
g17
S'Hot_Tub_Time_Machine_2'
p1641
ssS'Wrong No.'
p1642
(dp1643
g17
S'Wrong_No.'
p1644
ssS'Manchester by the Sea'
p1645
(dp1646
g13
S'Manchester_by_the_Sea_(film)'
p1647
ssS'Beasts of No Nation'
p1648
(dp1649
g17
S'Beasts_of_No_Nation_(film)'
p1650
ssS'Love & Mercy'
p1651
(dp1652
g3
S'Love_%26_Mercy_(film)'
p1653
ssS"Miss Peregrine's Home for Peculiar Children"
p1654
(dp1655
g13
S'Miss_Peregrine%27s_Home_for_Peculiar_Children_(film)'
p1656
ssS'Aida'
p1657
(dp1658
g17
S'Aida_(2015_film)'
p1659
ssS'When Marnie Was There'
p1660
(dp1661
g3
S'When_Marnie_Was_There'
p1662
ssS'The Nice Guys'
p1663
(dp1664
g13
S'The_Nice_Guys'
p1665
ssS'Ted 2'
p1666
(dp1667
g17
S'Ted_2'
p1668
ssS'Happy New Year'
p1669
(dp1670
g3
S'Happy_New_Year_(2014_film)'
p1671
ssS'Dawn of the Planet of the Apes'
p1672
(dp1673
g3
S'Dawn_of_the_Planet_of_the_Apes'
p1674
ssS'The Purge: Anarchy'
p1675
(dp1676
g3
S'The_Purge:_Anarchy'
p1677
ssS'Barbershop: The Next Cut'
p1678
(dp1679
g13
S'Barbershop:_The_Next_Cut'
p1680
ssS'Jamesy Boy'
p1681
(dp1682
g3
S'Jamesy_Boy'
p1683
ssS'Child 44'
p1684
(dp1685
g17
S'Child_44_(film)'
p1686
ssS'Boonie Bears: Mystical Winter'
p1687
(dp1688
g17
S'Boonie_Bears:_Mystical_Winter'
p1689
ssS'Maze Runner: The Scorch Trials'
p1690
(dp1691
g17
S'Maze_Runner:_The_Scorch_Trials'
p1692
ssS'The Divergent Series: Allegiant'
p1693
(dp1694
g13
S'The_Divergent_Series:_Allegiant'
p1695
ssS'When the Game Stands Tall'
p1696
(dp1697
g3
S'When_the_Game_Stands_Tall'
p1698
ssS'The Legend of Tarzan'
p1699
(dp1700
g13
S'The_Legend_of_Tarzan_(film)'
p1701
ssS'Mission: Impossible\xc2\xa0\xe2\x80\x93 Rogue Nation'
p1702
(dp1703
g17
S'Mission:_Impossible_%E2%80%93_Rogue_Nation'
p1704
ssS'Aloha'
p1705
(dp1706
g17
S'Aloha_(film)'
p1707
ssS'The Best of Me'
p1708
(dp1709
g3
S'The_Best_of_Me_(film)'
p1710
ssS'Faults'
p1711
(dp1712
g3
S'Faults_(film)'
p1713
ssS'Prem Ratan Dhan Payo'
p1714
(dp1715
g17
S'Prem_Ratan_Dhan_Payo'
p1716
ssS'Na Maloom Afraad'
p1717
(dp1718
g3
S'Na_Maloom_Afraad'
p1719
ssS'Appropriate Behaviour'
p1720
(dp1721
g3
S'Appropriate_Behaviour'
p1722
ssS'Think Like a Man Too'
p1723
(dp1724
g3
S'Think_Like_a_Man_Too'
p1725
ssS'Laggies'
p1726
(dp1727
g3
S'Laggies'
p1728
ssS'Jackpot'
p1729
(dp1730
g17
S'Jackpot_(2015_film)'
p1731
ssS'Transformers: Age of Extinction'
p1732
(dp1733
g3
S'Transformers:_Age_of_Extinction'
p1734
ssS'The One I Love'
p1735
(dp1736
g3
S'The_One_I_Love_(film)'
p1737
ssS'Suicide Squad'
p1738
(dp1739
g13
S'Suicide_Squad_(film)'
p1740
ssS'A Walk Among the Tombstones'
p1741
(dp1742
g3
S'A_Walk_Among_the_Tombstones_(film)'
p1743
ssS'Rosewater'
p1744
(dp1745
g3
S'Rosewater_(film)'
p1746
ssS'Back in the Day'
p1747
(dp1748
g3
S'Back_in_the_Day_(2014_film)'
p1749
ssS'Paddington'
p1750
(dp1751
g3
S'Paddington_(film)'
p1752
ssS'Fan'
p1753
(dp1754
g13
S'Fan_(film)'
p1755
ssS'Next Goal Wins'
p1756
(dp1757
g3
S'Next_Goal_Wins'
p1758
ssS'Render to Caesar'
p1759
(dp1760
g3
S'Render_to_Caesar'
p1761
ssS'Ouija'
p1762
(dp1763
g3
S'Ouija_(2014_film)'
p1764
ssS'Zhong Kui: Snow Girl and the Dark Crystal'
p1765
(dp1766
g17
S'Zhong_Kui:_Snow_Girl_and_the_Dark_Crystal'
p1767
ssS'Veve'
p1768
(dp1769
g3
S'Veve_(film)'
p1770
ssS'The Hundred-Foot Journey'
p1771
(dp1772
g3
S'The_Hundred-Foot_Journey_(film)'
p1773
ssS'The Last: Naruto the Movie'
p1774
(dp1775
g3
S'The_Last:_Naruto_the_Movie'
p1776
ssS'Queen of Katwe'
p1777
(dp1778
g13
S'Queen_of_Katwe'
p1779
ssS'Ida'
p1780
(dp1781
g3
S'Ida_(film)'
p1782
ssS"C'est si bon"
p1783
(dp1784
g17
S'C%27est_si_bon_(film)'
p1785
ssS'Truth'
p1786
(dp1787
g17
S'Truth_(2015_film)'
p1788
ssS'The Identical'
p1789
(dp1790
g3
S'The_Identical'
p1791
ssS'Lilting'
p1792
(dp1793
g3
S'Lilting_(film)'
p1794
ssS'Dolphin Tale 2'
p1795
(dp1796
g3
S'Dolphin_Tale_2'
p1797
ssS'Our Brand Is Crisis'
p1798
(dp1799
g17
S'Our_Brand_Is_Crisis_(2015_film)'
p1800
ssS'Mechanic: Resurrection'
p1801
(dp1802
g13
S'Mechanic:_Resurrection'
p1803
ssS'How to Be Single'
p1804
(dp1805
g13
S'How_to_Be_Single'
p1806
ssS'Eddie the Eagle'
p1807
(dp1808
g13
S'Eddie_the_Eagle_(film)'
p1809
ssS'Go Away Mr. Tumor'
p1810
(dp1811
g17
S'Go_Away_Mr._Tumor'
p1812
ssS'Creed'
p1813
(dp1814
g17
S'Creed_(film)'
p1815
ssS'Kingsman: The Secret Service'
p1816
(dp1817
g3
S'Kingsman:_The_Secret_Service'
p1818
ssS'Office Christmas Party'
p1819
(dp1820
g13
S'Office_Christmas_Party'
p1821
ssS'The Accountant'
p1822
(dp1823
g13
S'The_Accountant_(2016_film)'
p1824
ssS'Dragon Blade'
p1825
(dp1826
g17
S'Dragon_Blade_(film)'
p1827
ssS'Wild Tales'
p1828
(dp1829
g3
S'Wild_Tales_(film)'
p1830
ssS'Misconduct'
p1831
(dp1832
g13
S'Misconduct_(film)'
p1833
ssS'American Ultra'
p1834
(dp1835
g17
S'American_Ultra'
p1836
ssS'Jem and the Holograms'
p1837
(dp1838
g17
S'Jem_and_the_Holograms_(film)'
p1839
ssS'Self/less'
p1840
(dp1841
g17
S'less'
p1842
ssS'Prizrak'
p1843
(dp1844
g17
S'Prizrak'
p1845
ssS'Elvis & Nixon'
p1846
(dp1847
g13
S'Elvis_%26_Nixon'
p1848
ssS'This Is Where I Leave You'
p1849
(dp1850
g3
S'This_Is_Where_I_Leave_You'
p1851
ssS'Woodlawn'
p1852
(dp1853
g17
S'Woodlawn_(film)'
p1854
ssS'Me and Earl and the Dying Girl'
p1855
(dp1856
g17
S'Me_and_Earl_and_the_Dying_Girl_(film)'
p1857
ssS'Mischief Night'
p1858
(dp1859
g3
S'Mischief_Night_(2014_Baker_film)'
p1860
ssS'Shut In'
p1861
(dp1862
g13
S'Shut_In_(2016_film)'
p1863
ssS'The Light Between Oceans'
p1864
(dp1865
g13
S'The_Light_Between_Oceans_(film)'
p1866
ssS'Boonie Bears III'
p1867
(dp1868
g13
S'Boonie_Bears_III'
p1869
ssS'PK'
p1870
(dp1871
g3
S'PK_(film)'
p1872
ssS'Aambala'
p1873
(dp1874
g17
S'Aambala'
p1875
ssS'When the Bough Breaks'
p1876
(dp1877
g13
S'When_the_Bough_Breaks_(2016_film)'
p1878
ssS'Irrational Man'
p1879
(dp1880
g17
S'Irrational_Man_(film)'
p1881
ssS'The Purge: Election Year'
p1882
(dp1883
g13
S'The_Purge:_Election_Year'
p1884
ssS'Ouija 2'
p1885
(dp1886
g13
S'Ouija_2'
p1887
ssS'Sully'
p1888
(dp1889
g13
S'Sully_(film)'
p1890
ssS'The Second Mother'
p1891
(dp1892
g17
S'The_Second_Mother_(2015_film)'
p1893
ssS'Life'
p1894
(dp1895
g17
S'Life_(2015_film)'
p1896
ssS'The 33'
p1897
(dp1898
g17
S'The_33_(film)'
p1899
ssS'Frank'
p1900
(dp1901
g3
S'Frank_(film)'
p1902
ssS'The Falling'
p1903
(dp1904
g17
S'The_Falling_(film)'
p1905
ssS'Paranormal Activity: The Ghost Dimension'
p1906
(dp1907
g17
S'Paranormal_Activity:_The_Ghost_Dimension'
p1908
ssS'Annabelle'
p1909
(dp1910
g3
S'Annabelle_(film)'
p1911
ssS'Running Man'
p1912
(dp1913
g17
S'Running_Man_(2015_film)'
p1914
ssS'Warcraft'
p1915
(dp1916
g13
S'Warcraft_(film)'
p1917
ssS'The Amazing Spider-Man 2'
p1918
(dp1919
g3
S'The_Amazing_Spider-Man_2'
p1920
ssS'Star Trek Beyond'
p1921
(dp1922
g13
S'Star_Trek_Beyond'
p1923
ssS'Teenage Mutant Ninja Turtles: Out of the Shadows'
p1924
(dp1925
g13
S'Teenage_Mutant_Ninja_Turtles:_Out_of_the_Shadows_(film)'
p1926
ssS'Money Monster'
p1927
(dp1928
g13
S'Money_Monster'
p1929
ssS'Rock the Kasbah'
p1930
(dp1931
g17
S'Rock_the_Kasbah_(film)'
p1932
ssS'Stranger'
p1933
(dp1934
g17
S'Stranger_(2015_film)'
p1935
ssS'John Wick'
p1936
(dp1937
g3
S'John_Wick_(film)'
p1938
ssS'Bill'
p1939
(dp1940
g17
S'Bill_(2015_film)'
p1941
ssS'The Good Dinosaur'
p1942
(dp1943
g17
S'The_Good_Dinosaur'
p1944
ssS"I'll See You In My Dreams"
p1945
(dp1946
g17
S'I%27ll_See_You_in_My_Dreams_(2015_film)'
p1947
ssS'Road Hard'
p1948
(dp1949
g17
S'Road_Hard'
p1950
ssS'Utopia'
p1951
(dp1952
g17
S'Utopia_(2015_film)'
p1953
ssS'The Shack'
p1954
(dp1955
g13
S'The_Shack_(film)'
p1956
ssS'Hello, My Name Is Doris'
p1957
(dp1958
g17
S'Hello,_My_Name_Is_Doris'
p1959
ssS'Nerve'
p1960
(dp1961
g13
S'Nerve_(2016_film)'
p1962
ssS'13 Hours: The Secret Soldiers of Benghazi'
p1963
(dp1964
g13
S'13_Hours:_The_Secret_Soldiers_of_Benghazi'
p1965
ssS'Believe Me'
p1966
(dp1967
g3
S'Believe_Me_(film)'
p1968
ssS'Cuban Fury'
p1969
(dp1970
g3
S'Cuban_Fury'
p1971
ssS'The Danish Girl'
p1972
(dp1973
g17
S'The_Danish_Girl_(film)'
p1974
ssS'Cartel Land'
p1975
(dp1976
g17
S'Cartel_Land'
p1977
ssS'Lion'
p1978
(dp1979
g13
S'Lion_(2016_film)'
p1980
ssS'The Longest Ride'
p1981
(dp1982
g17
S'The_Longest_Ride_(film)'
p1983
ssS'Welcome to Me'
p1984
(dp1985
g3
S'Welcome_to_Me'
p1986
ssS'The Monkey King'
p1987
(dp1988
g3
S'The_Monkey_King_(film)'
p1989
ssS'The Choice'
p1990
(dp1991
g13
S'The_Choice_(2016_film)'
p1992
ssS'Edge of Tomorrow'
p1993
(dp1994
g3
S'Edge_of_Tomorrow_(film)'
p1995
ssS'Whiskey Tango Foxtrot'
p1996
(dp1997
g13
S'Whiskey_Tango_Foxtrot_(film)'
p1998
ssS'The Other Woman'
p1999
(dp2000
g3
S'The_Other_Woman_(2014_film)'
p2001
ssS'Bears'
p2002
(dp2003
g3
S'Bears_(film)'
p2004
ssS'Mortdecai'
p2005
(dp2006
g17
S'Mortdecai_(film)'
p2007
ssS'Shah'
p2008
(dp2009
g17
S'Shah_(film)'
p2010
ssS'The Bronze'
p2011
(dp2012
g13
S'The_Bronze_(film)'
p2013
ssS'The Forest'
p2014
(dp2015
g13
S'The_Forest_(2016_film)'
p2016
ssS'Mad Max: Fury Road'
p2017
(dp2018
g17
S'Mad_Max:_Fury_Road'
p2019
ssS'Detective Byomkesh Bakshy!'
p2020
(dp2021
g17
S'Detective_Byomkesh_Bakshy!'
p2022
ssS'Before I Go to Sleep'
p2023
(dp2024
g3
S'Before_I_Go_to_Sleep_(film)'
p2025
ssS'Step Up: All In'
p2026
(dp2027
g3
S'Step_Up:_All_In'
p2028
ssS'Viva'
p2029
(dp2030
g17
S'Viva_(2015_film)'
p2031
ssS'Heavenly Nomadic'
p2032
(dp2033
g17
S'Heavenly_Nomadic'
p2034
ssS'Dirty Grandpa'
p2035
(dp2036
g13
S'Dirty_Grandpa'
p2037
ssS'Ride Along 2'
p2038
(dp2039
g13
S'Ride_Along_2'
p2040
ssS'Amy'
p2041
(dp2042
g17
S'Amy_(2015_film)'
p2043
ssS'Tanu Weds Manu Returns'
p2044
(dp2045
g17
S'Tanu_Weds_Manu_Returns'
p2046
ssS'The Two of Us'
p2047
(dp2048
g17
S'The_Two_of_Us_(2015_film)'
p2049
ssS'Collateral Beauty'
p2050
(dp2051
g13
S'Collateral_Beauty'
p2052
ssS'Devil in the Detail'
p2053
(dp2054
g3
S'Devil_in_the_Detail_(2014_film)'
p2055
ssS'Meet the Blacks'
p2056
(dp2057
g13
S'Meet_the_Blacks'
p2058
ssS'Jai Ho'
p2059
(dp2060
g3
S'Jai_Ho_(film)'
p2061
ssS'Passengers'
p2062
(dp2063
g13
S'Passengers_(2016_film)'
p2064
ssS'A la mala'
p2065
(dp2066
g17
S'A_la_mala'
p2067
ssS'Remember'
p2068
(dp2069
g17
S'Remember_(2015_film)'
p2070
ssS'The Gambler'
p2071
(dp2072
g3
S'The_Gambler_(2014_film)'
p2073
ssS'The Hallow'
p2074
(dp2075
g17
S'The_Hallow'
p2076
ssS'Leviathan'
p2077
(dp2078
g3
S'Leviathan_(2014_film)'
p2079
ssS'Freezer'
p2080
(dp2081
g3
S'Freezer_(film)'
p2082
ssS'God Help the Girl'
p2083
(dp2084
g3
S'God_Help_the_Girl_(film)'
p2085
ssS'Masterminds'
p2086
(dp2087
g13
S'Masterminds_(2016_film)'
p2088
ssS'The Boxtrolls'
p2089
(dp2090
g3
S'The_Boxtrolls'
p2091
ssS'Kevin Hart: What Now?'
p2092
(dp2093
g13
S'Kevin_Hart:_What_Now%3F'
p2094
ssS'Patient Zero'
p2095
(dp2096
g13
S'Patient_Zero_(film)'
p2097
ssS'Suffragette'
p2098
(dp2099
g17
S'Suffragette_(film)'
p2100
ssS'The Age of Adaline'
p2101
(dp2102
g17
S'The_Age_of_Adaline'
p2103
ssS'Non-Stop'
p2104
(dp2105
g3
S'Non-Stop_(film)'
p2106
ssS'Hail, Caesar!'
p2107
(dp2108
g13
S'Hail,_Caesar!'
p2109
ssS'Ned Rifle'
p2110
(dp2111
g3
S'Ned_Rifle'
p2112
ssS'Point Break'
p2113
(dp2114
g17
S'Point_Break_(2015_film)'
p2115
ssS'Bin Roye'
p2116
(dp2117
g17
S'Bin_Roye'
p2118
ssS'Beyond the Mask'
p2119
(dp2120
g17
S'Beyond_the_Mask'
p2121
ssS'Inherent Vice'
p2122
(dp2123
g3
S'Inherent_Vice_(film)'
p2124
ssS'Boruto: Naruto the Movie'
p2125
(dp2126
g17
S'Boruto:_Naruto_the_Movie'
p2127
ssS'Concussion'
p2128
(dp2129
g17
S'Concussion_(2015_film)'
p2130
ssS'Cinderella'
p2131
(dp2132
g17
S'Cinderella_(2015_Disney_film)'
p2133
ssS'Steve Jobs'
p2134
(dp2135
g17
S'Steve_Jobs_(2015_film)'
p2136
ssS'90 Minutes in Heaven'
p2137
(dp2138
g17
S'90_Minutes_in_Heaven_(film)'
p2139
ssS'Popstar: Never Stop Never Stopping'
p2140
(dp2141
g13
S'Popstar:_Never_Stop_Never_Stopping'
p2142
ssS'Teenage Mutant Ninja Turtles'
p2143
(dp2144
g3
S'Teenage_Mutant_Ninja_Turtles_(2014_film)'
p2145
ssS'My All-American'
p2146
(dp2147
g17
S'My_All-American'
p2148
ssS'Hell and Back'
p2149
(dp2150
g17
S'Hell_and_Back_(film)'
p2151
ssS'Darling'
p2152
(dp2153
g17
S'Darling_(2015_Tamil_film)'
p2154
ssS'Kick'
p2155
(dp2156
g3
S'Kick_(2014_film)'
p2157
ssS'Chef'
p2158
(dp2159
g3
S'Chef_(film)'
p2160
ssS'Hector and the Search for Happiness'
p2161
(dp2162
g3
S'Hector_and_the_Search_for_Happiness_(film)'
p2163
ssS'Why Him?'
p2164
(dp2165
g13
S'Why_Him%3F'
p2166
ssS'Polis Evo'
p2167
(dp2168
g17
S'Polis_Evo'
p2169
ssS'Sleeping with Other People'
p2170
(dp2171
g17
S'Sleeping_with_Other_People'
p2172
ssS'Avengers: Age of Ultron'
p2173
(dp2174
g17
S'Avengers:_Age_of_Ultron'
p2175
ssS'Max'
p2176
(dp2177
g17
S'Max_(2015_film)'
p2178
ssS'The Final Girls'
p2179
(dp2180
g17
S'The_Final_Girls'
p2181
ssS'War Dogs'
p2182
(dp2183
g13
S'War_Dogs_(2016_film)'
p2184
ssS'Embrace of the Serpent'
p2185
(dp2186
g17
S'Embrace_of_the_Serpent'
p2187
ssS'3 Days to Kill'
p2188
(dp2189
g3
S'3_Days_to_Kill'
p2190
ssS'The Grand Budapest Hotel'
p2191
(dp2192
g3
S'The_Grand_Budapest_Hotel'
p2193
ssS'Sisters'
p2194
(dp2195
g17
S'Sisters_(2015_film)'
p2196
ssS'Trolls'
p2197
(dp2198
g13
S'Trolls_(film)'
p2199
ssS'The Legend of Hercules'
p2200
(dp2201
g3
S'The_Legend_of_Hercules'
p2202
ssS'The Infiltrator'
p2203
(dp2204
g13
S'The_Infiltrator_(2016_film)'
p2205
ssS'The Boy Next Door'
p2206
(dp2207
g17
S'The_Boy_Next_Door_(film)'
p2208
ssS'Dracula Untold'
p2209
(dp2210
g3
S'Dracula_Untold'
p2211
ssS'Central Intelligence'
p2212
(dp2213
g13
S'Central_Intelligence'
p2214
ssS'The Masked Saint'
p2215
(dp2216
g13
S'The_Masked_Saint'
p2217
ssS'The Boss'
p2218
(dp2219
g13
S'The_Boss_(2016_film)'
p2220
ssS'The Human Centipede 3'
p2221
(dp2222
g17
S'The_Human_Centipede_3_(Final_Sequence)'
p2223
ssS'Cesar Chavez'
p2224
(dp2225
g3
S'Cesar_Chavez_(film)'
p2226
ssS'The Hunger Games: Mockingjay \xe2\x80\x93 Part 2'
p2227
(dp2228
g17
S'The_Hunger_Games:_Mockingjay_%E2%80%93_Part_2'
p2229
ssS'Fishing Without Nets'
p2230
(dp2231
g3
S'Fishing_Without_Nets_(2014_film)'
p2232
ssS'The Hunger Games: Mockingjay \xe2\x80\x93 Part 1'
p2233
(dp2234
g3
S'The_Hunger_Games:_Mockingjay_%E2%80%93_Part_1'
p2235
ssS'Alvin and the Chipmunks: The Road Chip'
p2236
(dp2237
g17
S'Alvin_and_the_Chipmunks:_The_Road_Chip'
p2238
ssS'The Pyramid'
p2239
(dp2240
g3
S'The_Pyramid_(film)'
p2241
ssS'Far from the Madding Crowd'
p2242
(dp2243
g17
S'Far_from_the_Madding_Crowd_(2015_film)'
p2244
ssS'Love Is Strange'
p2245
(dp2246
g3
S'Love_Is_Strange_(film)'
p2247
ssS'Guardians of the Galaxy'
p2248
(dp2249
g3
S'Guardians_of_the_Galaxy_(film)'
p2250
ssS'Ek Villain'
p2251
(dp2252
g3
S'Ek_Villain'
p2253
ssS'Mr. Peabody & Sherman'
p2254
(dp2255
g3
S'Mr._Peabody_%26_Sherman'
p2256
ssS'Paper Towns'
p2257
(dp2258
g17
S'Paper_Towns_(film)'
p2259
ssS'The Water Diviner'
p2260
(dp2261
g3
S'The_Water_Diviner'
p2262
ssS'Kidnap'
p2263
(dp2264
g13
S'Kidnap_(2016_film)'
p2265
ssS'Underworld: Blood Wars'
p2266
(dp2267
g13
S'Underworld:_Blood_Wars'
p2268
ss.